target datalayout = "e-m:e-p270:32:32-p271:32:32-p272:64:64-i64:64-i128:128-f80:128-n8:16:32:64-S128"
target triple = "x86_64-pc-linux-gnu"

%struct.ImVec2 = type { float, float }
%struct.ImVec4 = type { float, float, float, float }
%struct.ImVector = type { i32, i32, ptr }
%struct.ImVector.0 = type { i32, i32, ptr }
%struct.ImVector.2 = type { i32, i32, ptr }
%struct.ImGuiStorage = type { %struct.ImVector.4 }
%struct.ImVector.4 = type { i32, i32, ptr }
%struct.ImVector.19 = type { i32, i32, ptr }
%struct.ImVector.20 = type { i32, i32, ptr }
%struct.ImRect = type { %struct.ImVec2, %struct.ImVec2 }
%struct.ImVector.30 = type { i32, i32, ptr }
%struct.ImGuiWindow = type <{ ptr, ptr, i32, i32, i32, [4 x i8], ptr, %struct.ImVec2, %struct.ImVec2, %struct.ImVec2, %struct.ImVec2, %struct.ImVec2, %struct.ImVec2, %struct.ImVec2, float, float, float, float, float, float, float, float, float, float, i32, i32, i32, i32, %struct.ImVec2, %struct.ImVec2, %struct.ImVec2, %struct.ImVec2, %struct.ImVec2, %struct.ImVec2, i8, i8, i8, i8, i8, i8, i8, i8, i8, i8, i8, i8, i8, i8, i8, i8, i16, i16, i16, i16, i16, i8, i8, i8, [3 x i8], i32, i8, i8, i8, i8, i32, %struct.ImVec2, %struct.ImVec2, [4 x i8], %struct.ImVector.30, %struct.ImGuiWindowTempData, %struct.ImRect, %struct.ImRect, %struct.ImRect, %struct.ImRect, %struct.ImRect, %struct.ImRect, %struct.ImRect, %struct.ImVec2ih, %struct.ImVec2ih, i32, float, float, [4 x i8], %struct.ImGuiStorage, %struct.ImVector.37, float, i32, ptr, %struct.ImDrawList, ptr, ptr, ptr, ptr, ptr, ptr, ptr, ptr, [2 x i32], [2 x %struct.ImRect], [2 x %struct.ImVec2], i32, i32, i32, i8, [3 x i8] }>
%struct.ImGuiWindowTempData = type { %struct.ImVec2, %struct.ImVec2, %struct.ImVec2, %struct.ImVec2, %struct.ImVec2, %struct.ImVec2, %struct.ImVec2, float, float, i8, i8, %struct.ImVec1, %struct.ImVec1, %struct.ImVec1, %struct.ImVec2, i32, i16, i16, i8, i8, i8, i8, %struct.ImVec2, %struct.ImGuiMenuColumns, i32, i32, %struct.ImVector.2, ptr, ptr, i32, i32, i32, i32, float, float, %struct.ImVector.19, %struct.ImVector.19 }
%struct.ImVec1 = type { float }
%struct.ImGuiMenuColumns = type <{ i32, i32, i16, i16, i16, i16, i16, [4 x i16], [2 x i8] }>
%struct.ImVec2ih = type { i16, i16 }
%struct.ImVector.37 = type { i32, i32, ptr }
%struct.ImDrawList = type { %struct.ImVector.38, %struct.ImVector, %struct.ImVector.39, i32, i32, ptr, ptr, ptr, %struct.ImVector.0, %struct.ImDrawCmdHeader, %struct.ImDrawListSplitter, %struct.ImVector.40, %struct.ImVector.41, float, ptr }
%struct.ImVector.38 = type { i32, i32, ptr }
%struct.ImVector.39 = type { i32, i32, ptr }
%struct.ImDrawCmdHeader = type <{ %struct.ImVec4, ptr, i32, [4 x i8] }>
%struct.ImDrawListSplitter = type { i32, i32, %struct.ImVector.20 }
%struct.ImVector.40 = type { i32, i32, ptr }
%struct.ImVector.41 = type { i32, i32, ptr }

; Function Attrs: mustprogress nounwind uwtable
define internal noundef i32 @_ZL19ChildWindowComparerPKvS0_(ptr noundef %0, ptr noundef %1) #1 {
  %3 = alloca i32, align 4
  %4 = alloca ptr, align 8
  %5 = alloca ptr, align 8
  %6 = alloca ptr, align 8
  %7 = alloca ptr, align 8
  %8 = alloca i32, align 4
  %9 = alloca i32, align 4
  %10 = alloca i32, align 4
  store ptr %0, ptr %4, align 8, !tbaa !293
  store ptr %1, ptr %5, align 8, !tbaa !293
  call void @llvm.lifetime.start.p0(i64 8, ptr %6) #16
  %11 = load ptr, ptr %4, align 8, !tbaa !293
  %12 = load ptr, ptr %11, align 8, !tbaa !412
  store ptr %12, ptr %6, align 8, !tbaa !412
  call void @llvm.lifetime.start.p0(i64 8, ptr %7) #16
  %13 = load ptr, ptr %5, align 8, !tbaa !293
  %14 = load ptr, ptr %13, align 8, !tbaa !412
  store ptr %14, ptr %7, align 8, !tbaa !412
  call void @llvm.lifetime.start.p0(i64 4, ptr %8) #16
  %15 = load ptr, ptr %6, align 8, !tbaa !412
  %16 = getelementptr inbounds nuw %struct.ImGuiWindow, ptr %15, i32 0, i32 3
  %17 = load i32, ptr %16, align 4, !tbaa !954
  %18 = and i32 %17, 67108864
  %19 = load ptr, ptr %7, align 8, !tbaa !412
  %20 = getelementptr inbounds nuw %struct.ImGuiWindow, ptr %19, i32 0, i32 3
  %21 = load i32, ptr %20, align 4, !tbaa !954
  %22 = and i32 %21, 67108864
  %23 = sub nsw i32 %18, %22
  store i32 %23, ptr %8, align 4, !tbaa !117
  %24 = load i32, ptr %8, align 4, !tbaa !117
  %25 = icmp ne i32 %24, 0
  br i1 %25, label %26, label %28

26:                                               ; preds = %2
  %27 = load i32, ptr %8, align 4, !tbaa !117
  store i32 %27, ptr %3, align 4
  store i32 1, ptr %9, align 4
  br label %29

28:                                               ; preds = %2
  store i32 0, ptr %9, align 4
  br label %29

29:                                               ; preds = %28, %26
  call void @llvm.lifetime.end.p0(i64 4, ptr %8) #16
  %30 = load i32, ptr %9, align 4
  switch i32 %30, label %58 [
    i32 0, label %31
  ]

31:                                               ; preds = %29
  call void @llvm.lifetime.start.p0(i64 4, ptr %10) #16
  %32 = load ptr, ptr %6, align 8, !tbaa !412
  %33 = getelementptr inbounds nuw %struct.ImGuiWindow, ptr %32, i32 0, i32 3
  %34 = load i32, ptr %33, align 4, !tbaa !954
  %35 = and i32 %34, 33554432
  %36 = load ptr, ptr %7, align 8, !tbaa !412
  %37 = getelementptr inbounds nuw %struct.ImGuiWindow, ptr %36, i32 0, i32 3
  %38 = load i32, ptr %37, align 4, !tbaa !954
  %39 = and i32 %38, 33554432
  %40 = sub nsw i32 %35, %39
  store i32 %40, ptr %10, align 4, !tbaa !117
  %41 = load i32, ptr %10, align 4, !tbaa !117
  %42 = icmp ne i32 %41, 0
  br i1 %42, label %43, label %45

43:                                               ; preds = %31
  %44 = load i32, ptr %10, align 4, !tbaa !117
  store i32 %44, ptr %3, align 4
  store i32 1, ptr %9, align 4
  br label %46

45:                                               ; preds = %31
  store i32 0, ptr %9, align 4
  br label %46

46:                                               ; preds = %45, %43
  call void @llvm.lifetime.end.p0(i64 4, ptr %10) #16
  %47 = load i32, ptr %9, align 4
  switch i32 %47, label %58 [
    i32 0, label %48
  ]

48:                                               ; preds = %46
  %49 = load ptr, ptr %6, align 8, !tbaa !412
  %50 = getelementptr inbounds nuw %struct.ImGuiWindow, ptr %49, i32 0, i32 52
  %51 = load i16, ptr %50, align 4, !tbaa !1192
  %52 = sext i16 %51 to i32
  %53 = load ptr, ptr %7, align 8, !tbaa !412
  %54 = getelementptr inbounds nuw %struct.ImGuiWindow, ptr %53, i32 0, i32 52
  %55 = load i16, ptr %54, align 4, !tbaa !1192
  %56 = sext i16 %55 to i32
  %57 = sub nsw i32 %52, %56
  store i32 %57, ptr %3, align 4
  store i32 1, ptr %9, align 4
  br label %58

58:                                               ; preds = %48, %46, %29
  call void @llvm.lifetime.end.p0(i64 8, ptr %7) #16
  call void @llvm.lifetime.end.p0(i64 8, ptr %6) #16
  %59 = load i32, ptr %3, align 4
  ret i32 %59
}