; Function Attrs: mustprogress nofree norecurse nosync nounwind willreturn memory(read, inaccessiblemem: none) uwtable
define internal noundef range(i32 -67108864, 67108865) i32 @_ZL19ChildWindowComparerPKvS0_(ptr noundef readonly captures(none) %0, ptr noundef readonly captures(none) %1) #31 {
  %3 = load ptr, ptr %0, align 8, !tbaa !666
  %4 = load ptr, ptr %1, align 8, !tbaa !666
  %5 = getelementptr inbounds nuw i8, ptr %3, i64 20
  %6 = load i32, ptr %5, align 4, !tbaa !681
  %7 = and i32 %6, 67108864
  %8 = getelementptr inbounds nuw i8, ptr %4, i64 20
  %9 = load i32, ptr %8, align 4, !tbaa !681
  %10 = and i32 %9, 67108864
  %11 = sub nsw i32 %7, %10
  %.not = icmp eq i32 %11, 0
  br i1 %.not, label %12, label %24

12:                                               ; preds = %2
  %13 = and i32 %6, 33554432
  %14 = and i32 %9, 33554432
  %15 = sub nsw i32 %13, %14
  %.not17 = icmp eq i32 %15, 0
  br i1 %.not17, label %16, label %24

16:                                               ; preds = %12
  %17 = getelementptr inbounds nuw i8, ptr %3, i64 220
  %18 = load i16, ptr %17, align 4, !tbaa !1038
  %19 = sext i16 %18 to i32
  %20 = getelementptr inbounds nuw i8, ptr %4, i64 220
  %21 = load i16, ptr %20, align 4, !tbaa !1038
  %22 = sext i16 %21 to i32
  %23 = sub nsw i32 %19, %22
  br label %24

24:                                               ; preds = %12, %2, %16
  %.1 = phi i32 [ %23, %16 ], [ %15, %12 ], [ %11, %2 ]
  ret i32 %.1
}